target datalayout = "e-m:e-p270:32:32-p271:32:32-p272:64:64-i64:64-i128:128-f80:128-n8:16:32:64-S128"
target triple = "x86_64-pc-linux-gnu"

%struct.DdManager = type { %struct.DdNode, ptr, ptr, ptr, ptr, ptr, ptr, ptr, i32, i32, double, double, double, i32, i32, i32, i32, i32, i32, ptr, ptr, %struct.DdSubtable, i32, i32, i32, i32, i32, i32, i32, double, i32, i32, i32, ptr, i64, double, i32, ptr, ptr, ptr, ptr, ptr, ptr, ptr, i32, ptr, ptr, ptr, ptr, ptr, ptr, i32, i32, i32, double, i32, i32, i32, i32, double, double, i32, i32, i32, i32, i32, i32, i32, i32, i32, ptr, ptr, i32, i32, i32, i32, i32, i32, ptr, ptr, ptr, ptr, ptr, ptr, ptr, ptr, i32, i64, i64, i64, i32, i64, i64, double, double, double, double, double, double, i32, ptr, ptr, i64 }
%struct.DdNode = type { i32, i32, ptr, %union.anon, i64 }
%union.anon = type { %struct.DdChildren }
%struct.DdChildren = type { ptr, ptr }
%struct.DdSubtable = type { ptr, i32, i32, i32, i32, i32, i32, i32, i32, i32, i32, i32 }

; Function Attrs: nounwind uwtable
define ptr @cuddBddBooleanDiffRecur(ptr noundef %0, ptr noundef %1, ptr noundef %2) #0 {
  %4 = alloca ptr, align 8
  %5 = alloca ptr, align 8
  %6 = alloca ptr, align 8
  %7 = alloca ptr, align 8
  %8 = alloca ptr, align 8
  %9 = alloca ptr, align 8
  %10 = alloca ptr, align 8
  %11 = alloca ptr, align 8
  %12 = alloca ptr, align 8
  %13 = alloca i32, align 4
  store ptr %0, ptr %5, align 8, !tbaa !3
  store ptr %1, ptr %6, align 8, !tbaa !8
  store ptr %2, ptr %7, align 8, !tbaa !8
  call void @llvm.lifetime.start.p0(i64 8, ptr %8) #4
  call void @llvm.lifetime.start.p0(i64 8, ptr %9) #4
  call void @llvm.lifetime.start.p0(i64 8, ptr %10) #4
  call void @llvm.lifetime.start.p0(i64 8, ptr %11) #4
  call void @llvm.lifetime.start.p0(i64 8, ptr %12) #4
  %14 = load ptr, ptr %6, align 8, !tbaa !8
  %15 = getelementptr inbounds nuw %struct.DdNode, ptr %14, i32 0, i32 0
  %16 = load i32, ptr %15, align 8, !tbaa !32
  %17 = icmp eq i32 %16, 2147483647
  br i1 %17, label %18, label %22

18:                                               ; preds = %3
  %19 = load ptr, ptr %6, align 8, !tbaa !8
  %20 = getelementptr inbounds nuw %struct.DdNode, ptr %19, i32 0, i32 0
  %21 = load i32, ptr %20, align 8, !tbaa !32
  br label %32

22:                                               ; preds = %3
  %23 = load ptr, ptr %5, align 8, !tbaa !3
  %24 = getelementptr inbounds nuw %struct.DdManager, ptr %23, i32 0, i32 37
  %25 = load ptr, ptr %24, align 8, !tbaa !34
  %26 = load ptr, ptr %6, align 8, !tbaa !8
  %27 = getelementptr inbounds nuw %struct.DdNode, ptr %26, i32 0, i32 0
  %28 = load i32, ptr %27, align 8, !tbaa !32
  %29 = zext i32 %28 to i64
  %30 = getelementptr inbounds nuw i32, ptr %25, i64 %29
  %31 = load i32, ptr %30, align 4, !tbaa !35
  br label %32

32:                                               ; preds = %22, %18
  %33 = phi i32 [ %21, %18 ], [ %31, %22 ]
  %34 = load ptr, ptr %5, align 8, !tbaa !3
  %35 = getelementptr inbounds nuw %struct.DdManager, ptr %34, i32 0, i32 37
  %36 = load ptr, ptr %35, align 8, !tbaa !34
  %37 = load ptr, ptr %7, align 8, !tbaa !8
  %38 = getelementptr inbounds nuw %struct.DdNode, ptr %37, i32 0, i32 0
  %39 = load i32, ptr %38, align 8, !tbaa !32
  %40 = zext i32 %39 to i64
  %41 = getelementptr inbounds nuw i32, ptr %36, i64 %40
  %42 = load i32, ptr %41, align 4, !tbaa !35
  %43 = icmp sgt i32 %33, %42
  br i1 %43, label %44, label %51

44:                                               ; preds = %32
  %45 = load ptr, ptr %5, align 8, !tbaa !3
  %46 = getelementptr inbounds nuw %struct.DdManager, ptr %45, i32 0, i32 1
  %47 = load ptr, ptr %46, align 8, !tbaa !31
  %48 = ptrtoint ptr %47 to i64
  %49 = xor i64 %48, 1
  %50 = inttoptr i64 %49 to ptr
  store ptr %50, ptr %4, align 8
  store i32 1, ptr %13, align 4
  br label %164

51:                                               ; preds = %32
  %52 = load ptr, ptr %6, align 8, !tbaa !8
  %53 = getelementptr inbounds nuw %struct.DdNode, ptr %52, i32 0, i32 0
  %54 = load i32, ptr %53, align 8, !tbaa !32
  %55 = load ptr, ptr %7, align 8, !tbaa !8
  %56 = getelementptr inbounds nuw %struct.DdNode, ptr %55, i32 0, i32 0
  %57 = load i32, ptr %56, align 8, !tbaa !32
  %58 = icmp eq i32 %54, %57
  br i1 %58, label %59, label %71

59:                                               ; preds = %51
  %60 = load ptr, ptr %5, align 8, !tbaa !3
  %61 = load ptr, ptr %6, align 8, !tbaa !8
  %62 = getelementptr inbounds nuw %struct.DdNode, ptr %61, i32 0, i32 3
  %63 = getelementptr inbounds nuw %struct.DdChildren, ptr %62, i32 0, i32 0
  %64 = load ptr, ptr %63, align 8, !tbaa !33
  %65 = load ptr, ptr %6, align 8, !tbaa !8
  %66 = getelementptr inbounds nuw %struct.DdNode, ptr %65, i32 0, i32 3
  %67 = getelementptr inbounds nuw %struct.DdChildren, ptr %66, i32 0, i32 1
  %68 = load ptr, ptr %67, align 8, !tbaa !33
  %69 = call ptr @cuddBddXorRecur(ptr noundef %60, ptr noundef %64, ptr noundef %68)
  store ptr %69, ptr %10, align 8, !tbaa !8
  %70 = load ptr, ptr %10, align 8, !tbaa !8
  store ptr %70, ptr %4, align 8
  store i32 1, ptr %13, align 4
  br label %164

71:                                               ; preds = %51
  %72 = load ptr, ptr %5, align 8, !tbaa !3
  %73 = load ptr, ptr %6, align 8, !tbaa !8
  %74 = load ptr, ptr %7, align 8, !tbaa !8
  %75 = call ptr @cuddCacheLookup2(ptr noundef %72, ptr noundef @cuddBddBooleanDiffRecur, ptr noundef %73, ptr noundef %74)
  store ptr %75, ptr %10, align 8, !tbaa !8
  %76 = load ptr, ptr %10, align 8, !tbaa !8
  %77 = icmp ne ptr %76, null
  br i1 %77, label %78, label %80

78:                                               ; preds = %71
  %79 = load ptr, ptr %10, align 8, !tbaa !8
  store ptr %79, ptr %4, align 8
  store i32 1, ptr %13, align 4
  br label %164

80:                                               ; preds = %71
  %81 = load ptr, ptr %6, align 8, !tbaa !8
  %82 = getelementptr inbounds nuw %struct.DdNode, ptr %81, i32 0, i32 3
  %83 = getelementptr inbounds nuw %struct.DdChildren, ptr %82, i32 0, i32 0
  %84 = load ptr, ptr %83, align 8, !tbaa !33
  store ptr %84, ptr %8, align 8, !tbaa !8
  %85 = load ptr, ptr %6, align 8, !tbaa !8
  %86 = getelementptr inbounds nuw %struct.DdNode, ptr %85, i32 0, i32 3
  %87 = getelementptr inbounds nuw %struct.DdChildren, ptr %86, i32 0, i32 1
  %88 = load ptr, ptr %87, align 8, !tbaa !33
  store ptr %88, ptr %9, align 8, !tbaa !8
  %89 = load ptr, ptr %5, align 8, !tbaa !3
  %90 = load ptr, ptr %8, align 8, !tbaa !8
  %91 = load ptr, ptr %7, align 8, !tbaa !8
  %92 = call ptr @cuddBddBooleanDiffRecur(ptr noundef %89, ptr noundef %90, ptr noundef %91)
  store ptr %92, ptr %11, align 8, !tbaa !8
  %93 = load ptr, ptr %11, align 8, !tbaa !8
  %94 = icmp eq ptr %93, null
  br i1 %94, label %95, label %96

95:                                               ; preds = %80
  store ptr null, ptr %4, align 8
  store i32 1, ptr %13, align 4
  br label %164

96:                                               ; preds = %80
  %97 = load ptr, ptr %11, align 8, !tbaa !8
  %98 = ptrtoint ptr %97 to i64
  %99 = and i64 %98, -2
  %100 = inttoptr i64 %99 to ptr
  %101 = getelementptr inbounds nuw %struct.DdNode, ptr %100, i32 0, i32 1
  %102 = load i32, ptr %101, align 4, !tbaa !37
  %103 = add i32 %102, 1
  store i32 %103, ptr %101, align 4, !tbaa !37
  %104 = load ptr, ptr %5, align 8, !tbaa !3
  %105 = load ptr, ptr %9, align 8, !tbaa !8
  %106 = ptrtoint ptr %105 to i64
  %107 = and i64 %106, -2
  %108 = inttoptr i64 %107 to ptr
  %109 = load ptr, ptr %7, align 8, !tbaa !8
  %110 = call ptr @cuddBddBooleanDiffRecur(ptr noundef %104, ptr noundef %108, ptr noundef %109)
  store ptr %110, ptr %12, align 8, !tbaa !8
  %111 = load ptr, ptr %12, align 8, !tbaa !8
  %112 = icmp eq ptr %111, null
  br i1 %112, label %113, label %116

113:                                              ; preds = %96
  %114 = load ptr, ptr %5, align 8, !tbaa !3
  %115 = load ptr, ptr %11, align 8, !tbaa !8
  call void @Cudd_IterDerefBdd(ptr noundef %114, ptr noundef %115)
  store ptr null, ptr %4, align 8
  store i32 1, ptr %13, align 4
  br label %164

116:                                              ; preds = %96
  %117 = load ptr, ptr %12, align 8, !tbaa !8
  %118 = ptrtoint ptr %117 to i64
  %119 = and i64 %118, -2
  %120 = inttoptr i64 %119 to ptr
  %121 = getelementptr inbounds nuw %struct.DdNode, ptr %120, i32 0, i32 1
  %122 = load i32, ptr %121, align 4, !tbaa !37
  %123 = add i32 %122, 1
  store i32 %123, ptr %121, align 4, !tbaa !37
  %124 = load ptr, ptr %5, align 8, !tbaa !3
  %125 = load ptr, ptr %5, align 8, !tbaa !3
  %126 = getelementptr inbounds nuw %struct.DdManager, ptr %125, i32 0, i32 41
  %127 = load ptr, ptr %126, align 8, !tbaa !38
  %128 = load ptr, ptr %6, align 8, !tbaa !8
  %129 = getelementptr inbounds nuw %struct.DdNode, ptr %128, i32 0, i32 0
  %130 = load i32, ptr %129, align 8, !tbaa !32
  %131 = zext i32 %130 to i64
  %132 = getelementptr inbounds nuw ptr, ptr %127, i64 %131
  %133 = load ptr, ptr %132, align 8, !tbaa !8
  %134 = load ptr, ptr %11, align 8, !tbaa !8
  %135 = load ptr, ptr %12, align 8, !tbaa !8
  %136 = call ptr @cuddBddIteRecur(ptr noundef %124, ptr noundef %133, ptr noundef %134, ptr noundef %135)
  store ptr %136, ptr %10, align 8, !tbaa !8
  %137 = load ptr, ptr %10, align 8, !tbaa !8
  %138 = icmp eq ptr %137, null
  br i1 %138, label %139, label %144

139:                                              ; preds = %116
  %140 = load ptr, ptr %5, align 8, !tbaa !3
  %141 = load ptr, ptr %11, align 8, !tbaa !8
  call void @Cudd_IterDerefBdd(ptr noundef %140, ptr noundef %141)
  %142 = load ptr, ptr %5, align 8, !tbaa !3
  %143 = load ptr, ptr %12, align 8, !tbaa !8
  call void @Cudd_IterDerefBdd(ptr noundef %142, ptr noundef %143)
  store ptr null, ptr %4, align 8
  store i32 1, ptr %13, align 4
  br label %164

144:                                              ; preds = %116
  %145 = load ptr, ptr %11, align 8, !tbaa !8
  %146 = ptrtoint ptr %145 to i64
  %147 = and i64 %146, -2
  %148 = inttoptr i64 %147 to ptr
  %149 = getelementptr inbounds nuw %struct.DdNode, ptr %148, i32 0, i32 1
  %150 = load i32, ptr %149, align 4, !tbaa !37
  %151 = add i32 %150, -1
  store i32 %151, ptr %149, align 4, !tbaa !37
  %152 = load ptr, ptr %12, align 8, !tbaa !8
  %153 = ptrtoint ptr %152 to i64
  %154 = and i64 %153, -2
  %155 = inttoptr i64 %154 to ptr
  %156 = getelementptr inbounds nuw %struct.DdNode, ptr %155, i32 0, i32 1
  %157 = load i32, ptr %156, align 4, !tbaa !37
  %158 = add i32 %157, -1
  store i32 %158, ptr %156, align 4, !tbaa !37
  %159 = load ptr, ptr %5, align 8, !tbaa !3
  %160 = load ptr, ptr %6, align 8, !tbaa !8
  %161 = load ptr, ptr %7, align 8, !tbaa !8
  %162 = load ptr, ptr %10, align 8, !tbaa !8
  call void @cuddCacheInsert2(ptr noundef %159, ptr noundef @cuddBddBooleanDiffRecur, ptr noundef %160, ptr noundef %161, ptr noundef %162)
  %163 = load ptr, ptr %10, align 8, !tbaa !8
  store ptr %163, ptr %4, align 8
  store i32 1, ptr %13, align 4
  br label %164

164:                                              ; preds = %144, %139, %113, %95, %78, %59, %44
  call void @llvm.lifetime.end.p0(i64 8, ptr %12) #4
  call void @llvm.lifetime.end.p0(i64 8, ptr %11) #4
  call void @llvm.lifetime.end.p0(i64 8, ptr %10) #4
  call void @llvm.lifetime.end.p0(i64 8, ptr %9) #4
  call void @llvm.lifetime.end.p0(i64 8, ptr %8) #4
  %165 = load ptr, ptr %4, align 8
  ret ptr %165
}