; Function Attrs: nounwind uwtable
define ptr @cuddBddBooleanDiffRecur(ptr noundef %0, ptr noundef %1, ptr noundef %2) #0 {
  %4 = load i32, ptr %1, align 8, !tbaa !24
  %5 = icmp eq i32 %4, 2147483647
  %.phi.trans.insert = getelementptr inbounds nuw i8, ptr %0, i64 312
  %.pre = load ptr, ptr %.phi.trans.insert, align 8, !tbaa !31
  br i1 %5, label %._crit_edge, label %6

6:                                                ; preds = %3
  %7 = zext i32 %4 to i64
  %8 = getelementptr inbounds nuw i32, ptr %.pre, i64 %7
  %9 = load i32, ptr %8, align 4, !tbaa !32
  br label %._crit_edge

._crit_edge:                                      ; preds = %3, %6
  %10 = phi i32 [ %9, %6 ], [ 2147483647, %3 ]
  %11 = load i32, ptr %2, align 8, !tbaa !24
  %12 = zext i32 %11 to i64
  %13 = getelementptr inbounds nuw i32, ptr %.pre, i64 %12
  %14 = load i32, ptr %13, align 4, !tbaa !32
  %15 = icmp sgt i32 %10, %14
  br i1 %15, label %16, label %22

16:                                               ; preds = %._crit_edge
  %17 = getelementptr inbounds nuw i8, ptr %0, i64 40
  %18 = load ptr, ptr %17, align 8, !tbaa !3
  %19 = ptrtoint ptr %18 to i64
  %20 = xor i64 %19, 1
  %21 = inttoptr i64 %20 to ptr
  br label %73

22:                                               ; preds = %._crit_edge
  %23 = icmp eq i32 %4, %11
  br i1 %23, label %24, label %30

24:                                               ; preds = %22
  %25 = getelementptr inbounds nuw i8, ptr %1, i64 16
  %26 = load ptr, ptr %25, align 8, !tbaa !25
  %27 = getelementptr inbounds nuw i8, ptr %1, i64 24
  %28 = load ptr, ptr %27, align 8, !tbaa !25
  %29 = tail call ptr @cuddBddXorRecur(ptr noundef nonnull %0, ptr noundef %26, ptr noundef %28) #4
  br label %73

30:                                               ; preds = %22
  %31 = tail call ptr @cuddCacheLookup2(ptr noundef nonnull %0, ptr noundef nonnull @cuddBddBooleanDiffRecur, ptr noundef nonnull %1, ptr noundef nonnull %2) #4
  %.not = icmp eq ptr %31, null
  br i1 %.not, label %32, label %73

32:                                               ; preds = %30
  %33 = getelementptr inbounds nuw i8, ptr %1, i64 16
  %34 = load ptr, ptr %33, align 8, !tbaa !25
  %35 = getelementptr inbounds nuw i8, ptr %1, i64 24
  %36 = load ptr, ptr %35, align 8, !tbaa !25
  %37 = tail call ptr @cuddBddBooleanDiffRecur(ptr noundef nonnull %0, ptr noundef %34, ptr noundef nonnull %2)
  %38 = icmp eq ptr %37, null
  br i1 %38, label %73, label %39

39:                                               ; preds = %32
  %40 = ptrtoint ptr %37 to i64
  %41 = and i64 %40, -2
  %42 = inttoptr i64 %41 to ptr
  %43 = getelementptr inbounds nuw i8, ptr %42, i64 4
  %44 = load i32, ptr %43, align 4, !tbaa !34
  %45 = add i32 %44, 1
  store i32 %45, ptr %43, align 4, !tbaa !34
  %46 = ptrtoint ptr %36 to i64
  %47 = and i64 %46, -2
  %48 = inttoptr i64 %47 to ptr
  %49 = tail call ptr @cuddBddBooleanDiffRecur(ptr noundef nonnull %0, ptr noundef %48, ptr noundef nonnull %2)
  %50 = icmp eq ptr %49, null
  br i1 %50, label %51, label %52

51:                                               ; preds = %39
  tail call void @Cudd_IterDerefBdd(ptr noundef nonnull %0, ptr noundef nonnull %37) #4
  br label %73

52:                                               ; preds = %39
  %53 = ptrtoint ptr %49 to i64
  %54 = and i64 %53, -2
  %55 = inttoptr i64 %54 to ptr
  %56 = getelementptr inbounds nuw i8, ptr %55, i64 4
  %57 = load i32, ptr %56, align 4, !tbaa !34
  %58 = add i32 %57, 1
  store i32 %58, ptr %56, align 4, !tbaa !34
  %59 = getelementptr inbounds nuw i8, ptr %0, i64 344
  %60 = load ptr, ptr %59, align 8, !tbaa !35
  %61 = load i32, ptr %1, align 8, !tbaa !24
  %62 = zext i32 %61 to i64
  %63 = getelementptr inbounds nuw ptr, ptr %60, i64 %62
  %64 = load ptr, ptr %63, align 8, !tbaa !36
  %65 = tail call ptr @cuddBddIteRecur(ptr noundef nonnull %0, ptr noundef %64, ptr noundef nonnull %37, ptr noundef nonnull %49) #4
  %66 = icmp eq ptr %65, null
  br i1 %66, label %67, label %68

67:                                               ; preds = %52
  tail call void @Cudd_IterDerefBdd(ptr noundef nonnull %0, ptr noundef nonnull %37) #4
  tail call void @Cudd_IterDerefBdd(ptr noundef nonnull %0, ptr noundef nonnull %49) #4
  br label %73

68:                                               ; preds = %52
  %69 = load i32, ptr %43, align 4, !tbaa !34
  %70 = add i32 %69, -1
  store i32 %70, ptr %43, align 4, !tbaa !34
  %71 = load i32, ptr %56, align 4, !tbaa !34
  %72 = add i32 %71, -1
  store i32 %72, ptr %56, align 4, !tbaa !34
  tail call void @cuddCacheInsert2(ptr noundef nonnull %0, ptr noundef nonnull @cuddBddBooleanDiffRecur, ptr noundef nonnull %1, ptr noundef nonnull %2, ptr noundef nonnull %65) #4
  br label %73

73:                                               ; preds = %32, %30, %68, %67, %51, %24, %16
  %.0 = phi ptr [ %21, %16 ], [ %29, %24 ], [ null, %51 ], [ null, %67 ], [ %65, %68 ], [ %31, %30 ], [ null, %32 ]
  ret ptr %.0
}